; Function Attrs: mustprogress nofree norecurse nosync nounwind willreturn memory(argmem: write) uwtable
define range(i32 0, 2) i32 @ossl_qtx_set_mdpl(ptr noundef writeonly captures(none) %0, i64 noundef %1) local_unnamed_addr #3 {
  %3 = icmp ult i64 %1, 1200
  br i1 %3, label %6, label %4

4:                                                ; preds = %2
  %5 = getelementptr inbounds nuw i8, ptr %0, i64 872
  store i64 %1, ptr %5, align 8, !tbaa !23
  br label %6

6:                                                ; preds = %2, %4
  %.0 = phi i32 [ 1, %4 ], [ 0, %2 ]
  ret i32 %.0
}